;
; File generated by cc65 v 2.15
;
	.fopt		compiler,"cc65 v 2.15"
	.setcpu		"6502"
	.smart		on
	.autoimport	on
	.case		on
	.debuginfo	off
	.importzp	sp, sreg, regsave, regbank
	.importzp	tmp1, tmp2, tmp3, tmp4, ptr1, ptr2, ptr3, ptr4
	.macpack	longbranch
	.forceimport	__STARTUP__
	.import		_pal_bg
	.import		_pal_spr
	.import		_pal_col
	.import		_ppu_wait_nmi
	.import		_ppu_off
	.import		_ppu_on_all
	.import		_oam_clear
	.import		_oam_meta_spr
	.import		_pad_poll
	.import		_bank_spr
	.import		_vram_adr
	.import		_vram_write
	.import		_check_collision
	.export		_YellowSpr
	.export		_BlueSpr
	.export		_sprid
	.export		_pad1
	.export		_pad2
	.export		_collision
	.export		_BoxGuy1
	.export		_BoxGuy2
	.export		_text
	.export		_palette_bg
	.export		_palette_sp
	.export		_draw_sprites
	.export		_movement
	.export		_test_collision
	.export		_main

.segment	"DATA"

_BoxGuy1:
	.byte	$14
	.byte	$14
	.byte	$0F
	.byte	$0F
_BoxGuy2:
	.byte	$46
	.byte	$14
	.byte	$0F
	.byte	$0F

.segment	"RODATA"

_YellowSpr:
	.byte	$00
	.byte	$00
	.byte	$00
	.byte	$00
	.byte	$00
	.byte	$08
	.byte	$10
	.byte	$00
	.byte	$08
	.byte	$00
	.byte	$00
	.byte	$40
	.byte	$08
	.byte	$08
	.byte	$10
	.byte	$40
	.byte	$80
_BlueSpr:
	.byte	$00
	.byte	$00
	.byte	$00
	.byte	$01
	.byte	$00
	.byte	$08
	.byte	$10
	.byte	$01
	.byte	$08
	.byte	$00
	.byte	$00
	.byte	$41
	.byte	$08
	.byte	$08
	.byte	$10
	.byte	$41
	.byte	$80
_text:
	.byte	$53,$70,$72,$69,$74,$65,$20,$43,$6F,$6C,$6C,$69,$73,$69,$6F,$6E
	.byte	$73,$00
_palette_bg:
	.byte	$00
	.byte	$00
	.byte	$10
	.byte	$30
	.byte	$00
	.byte	$00
	.byte	$00
	.byte	$00
	.byte	$00
	.byte	$00
	.byte	$00
	.byte	$00
	.byte	$00
	.byte	$00
	.byte	$00
	.byte	$00
_palette_sp:
	.byte	$0F
	.byte	$0F
	.byte	$0F
	.byte	$28
	.byte	$0F
	.byte	$0F
	.byte	$0F
	.byte	$12
	.byte	$00
	.byte	$00
	.byte	$00
	.byte	$00
	.byte	$00
	.byte	$00
	.byte	$00
	.byte	$00

.segment	"BSS"

.segment	"ZEROPAGE"
_sprid:
	.res	1,$00
_pad1:
	.res	1,$00
_pad2:
	.res	1,$00
_collision:
	.res	1,$00
.segment	"BSS"

; ---------------------------------------------------------------
; void __near__ draw_sprites (void)
; ---------------------------------------------------------------

.segment	"CODE"

.proc	_draw_sprites: near

.segment	"CODE"

;
; oam_clear();
;
	jsr     _oam_clear
;
; sprid = 0;
;
	lda     #$00
	sta     _sprid
;
; sprid = oam_meta_spr(BoxGuy1.x, BoxGuy1.y, sprid, YellowSpr);
;
	jsr     decsp3
	lda     _BoxGuy1
	ldy     #$02
	sta     (sp),y
	lda     _BoxGuy1+1
	dey
	sta     (sp),y
	lda     _sprid
	dey
	sta     (sp),y
	lda     #<(_YellowSpr)
	ldx     #>(_YellowSpr)
	jsr     _oam_meta_spr
	sta     _sprid
;
; sprid = oam_meta_spr(BoxGuy2.x, BoxGuy2.y, sprid, BlueSpr);
;
	jsr     decsp3
	lda     _BoxGuy2
	ldy     #$02
	sta     (sp),y
	lda     _BoxGuy2+1
	dey
	sta     (sp),y
	lda     _sprid
	dey
	sta     (sp),y
	lda     #<(_BlueSpr)
	ldx     #>(_BlueSpr)
	jsr     _oam_meta_spr
	sta     _sprid
;
; }
;
	rts

.endproc

; ---------------------------------------------------------------
; void __near__ movement (void)
; ---------------------------------------------------------------

.segment	"CODE"

.proc	_movement: near

.segment	"CODE"

;
; if(pad1 & PAD_LEFT){
;
	lda     _pad1
	and     #$02
	beq     L00B7
;
; BoxGuy1.x -= 1;
;
	dec     _BoxGuy1
;
; else if (pad1 & PAD_RIGHT){
;
	jmp     L00B8
L00B7:	lda     _pad1
	and     #$01
	beq     L00B8
;
; BoxGuy1.x += 1;
;
	inc     _BoxGuy1
;
; if(pad1 & PAD_UP){
;
L00B8:	lda     _pad1
	and     #$08
	beq     L00B9
;
; BoxGuy1.y -= 1;
;
	dec     _BoxGuy1+1
;
; else if (pad1 & PAD_DOWN){
;
	jmp     L00BA
L00B9:	lda     _pad1
	and     #$04
	beq     L00BA
;
; BoxGuy1.y += 1;
;
	inc     _BoxGuy1+1
;
; if(pad2 & PAD_LEFT){
;
L00BA:	lda     _pad2
	and     #$02
	beq     L00BB
;
; BoxGuy2.x -= 1;
;
	dec     _BoxGuy2
;
; else if (pad2 & PAD_RIGHT){
;
	jmp     L00BC
L00BB:	lda     _pad2
	and     #$01
	beq     L00BC
;
; BoxGuy2.x += 1;
;
	inc     _BoxGuy2
;
; if(pad2 & PAD_UP){
;
L00BC:	lda     _pad2
	and     #$08
	beq     L00BD
;
; BoxGuy2.y -= 1;
;
	dec     _BoxGuy2+1
;
; else if (pad2 & PAD_DOWN){
;
	rts
L00BD:	lda     _pad2
	and     #$04
	beq     L00A1
;
; BoxGuy2.y += 1;
;
	inc     _BoxGuy2+1
;
; } 
;
L00A1:	rts

.endproc

; ---------------------------------------------------------------
; void __near__ test_collision (void)
; ---------------------------------------------------------------

.segment	"CODE"

.proc	_test_collision: near

.segment	"CODE"

;
; collision = check_collision(&BoxGuy1, &BoxGuy2);
;
	lda     #<(_BoxGuy1)
	ldx     #>(_BoxGuy1)
	jsr     pushax
	lda     #<(_BoxGuy2)
	ldx     #>(_BoxGuy2)
	jsr     _check_collision
	sta     _collision
;
; if (collision){
;
	lda     _collision
	beq     L00BE
;
; pal_col(0,0x30); 
;
	lda     #$00
	jsr     pusha
	lda     #$30
	jmp     _pal_col
;
; pal_col(0,0x00);
;
L00BE:	jsr     pusha
	jmp     _pal_col

.endproc

; ---------------------------------------------------------------
; void __near__ main (void)
; ---------------------------------------------------------------

.segment	"CODE"

.proc	_main: near

.segment	"CODE"

;
; ppu_off(); // screen off
;
	jsr     _ppu_off
;
; pal_bg(palette_bg);
;
	lda     #<(_palette_bg)
	ldx     #>(_palette_bg)
	jsr     _pal_bg
;
; pal_spr(palette_sp);
;
	lda     #<(_palette_sp)
	ldx     #>(_palette_sp)
	jsr     _pal_spr
;
; bank_spr(1);
;
	lda     #$01
	jsr     _bank_spr
;
; vram_adr(NTADR_A(7,14)); // set a start position for the text
;
	ldx     #$21
	lda     #$C7
	jsr     _vram_adr
;
; vram_write(text,sizeof(text));
;
	lda     #<(_text)
	ldx     #>(_text)
	jsr     pushax
	ldx     #$00
	lda     #$12
	jsr     _vram_write
;
; ppu_on_all();
;
	jsr     _ppu_on_all
;
; ppu_wait_nmi(); // wait till beginning of the frame
;
L0062:	jsr     _ppu_wait_nmi
;
; pad1 = pad_poll(0); // read the first controller
;
	lda     #$00
	jsr     _pad_poll
	sta     _pad1
;
; pad2 = pad_poll(1); // read the second controller
;
	lda     #$01
	jsr     _pad_poll
	sta     _pad2
;
; movement();
;
	jsr     _movement
;
; test_collision();
;
	jsr     _test_collision
;
; draw_sprites();
;
	jsr     _draw_sprites
;
; while (1){
;
	jmp     L0062

.endproc

